target datalayout = "e-m:e-p270:32:32-p271:32:32-p272:64:64-i64:64-i128:128-f80:128-n8:16:32:64-S128"
target triple = "x86_64-pc-linux-gnu"

%struct.lstopo_output = type { ptr, i32, i32, i32, ptr, i32, i32, i32, i32, i32, i32, i32, i32, ptr, ptr, i32, i32, i64, i64, i64, i32, [3 x [128 x i8]], i32, i32, ptr, i32, i32, i32, i32, i32, i32, %struct.hwloc_calc_level, i32, i32, i32, i64, [256 x i8], i32, i32, i32, i32, i32, float, [20 x i32], i32, i32, i32, [20 x i32], i32, [20 x i32], i32, [20 x i32], i32, i32, i32, i32, ptr, ptr, i32, [20 x i32], [20 x i32], [20 x i32], ptr, ptr, i64, ptr, i32, i32, i32 }
%struct.hwloc_calc_level = type { i32, i32, %union.hwloc_obj_attr_u, [32 x i8], i32, i32, i32, i32 }
%union.hwloc_obj_attr_u = type { %struct.hwloc_numanode_attr_s, [24 x i8] }
%struct.hwloc_numanode_attr_s = type { i64, i32, ptr }
%struct.draw_methods = type { ptr, ptr, ptr, ptr, ptr, ptr }
%struct.hwloc_obj = type { i32, ptr, i32, ptr, i64, ptr, i32, i32, ptr, ptr, ptr, i32, ptr, ptr, i32, ptr, ptr, ptr, i32, i32, ptr, i32, ptr, i32, ptr, ptr, ptr, ptr, ptr, %struct.hwloc_infos_s, ptr, i64 }
%struct.hwloc_infos_s = type { ptr, i32, i32 }
%struct.lstopo_obj_userdata = type { %struct.hwloc_utils_userdata, i32, i32, %struct.lstopo_style, i32, i32, i32, i32, %struct.lstopo_children_position, %struct.lstopo_children_position, %struct.lstopo_children_position, %struct.lstopo_children_position, i32, i32, i32, [4 x %struct.lstopo_text_line], i32, i32 }
%struct.hwloc_utils_userdata = type { ptr, i64, ptr, ptr }
%struct.lstopo_style = type { ptr, ptr, ptr }
%struct.lstopo_children_position = type { i32, i32, i32, i32, i32, i32, ptr }
%struct.lstopo_text_line = type { [128 x i8], i32, i32 }

; Function Attrs: nounwind uwtable
define internal void @draw_text(ptr noundef %0, ptr noundef %1, ptr noundef %2, i32 noundef %3, i32 noundef %4, i32 noundef %5) #0 {
  %7 = alloca ptr, align 8
  %8 = alloca ptr, align 8
  %9 = alloca ptr, align 8
  %10 = alloca i32, align 4
  %11 = alloca i32, align 4
  %12 = alloca i32, align 4
  %13 = alloca ptr, align 8
  %14 = alloca ptr, align 8
  %15 = alloca i32, align 4
  %16 = alloca i32, align 4
  %17 = alloca i32, align 4
  %18 = alloca i32, align 4
  store ptr %0, ptr %7, align 8, !tbaa !4
  store ptr %1, ptr %8, align 8, !tbaa !42
  store ptr %2, ptr %9, align 8, !tbaa !20
  store i32 %3, ptr %10, align 4, !tbaa !18
  store i32 %4, ptr %11, align 4, !tbaa !18
  store i32 %5, ptr %12, align 4, !tbaa !18
  call void @llvm.lifetime.start.p0(i64 8, ptr %13) #12
  %19 = load ptr, ptr %7, align 8, !tbaa !4
  %20 = getelementptr inbounds nuw %struct.lstopo_output, ptr %19, i32 0, i32 65
  %21 = load ptr, ptr %20, align 8, !tbaa !35
  store ptr %21, ptr %13, align 8, !tbaa !74
  call void @llvm.lifetime.start.p0(i64 8, ptr %14) #12
  %22 = load ptr, ptr %8, align 8, !tbaa !42
  %23 = getelementptr inbounds nuw %struct.hwloc_obj, ptr %22, i32 0, i32 30
  %24 = load ptr, ptr %23, align 8, !tbaa !44
  store ptr %24, ptr %14, align 8, !tbaa !50
  call void @llvm.lifetime.start.p0(i64 4, ptr %15) #12
  %25 = load ptr, ptr %7, align 8, !tbaa !4
  %26 = getelementptr inbounds nuw %struct.lstopo_output, ptr %25, i32 0, i32 39
  %27 = load i32, ptr %26, align 8, !tbaa !76
  store i32 %27, ptr %15, align 4, !tbaa !18
  call void @llvm.lifetime.start.p0(i64 4, ptr %16) #12
  %28 = load ptr, ptr %7, align 8, !tbaa !4
  %29 = getelementptr inbounds nuw %struct.lstopo_output, ptr %28, i32 0, i32 40
  %30 = load i32, ptr %29, align 4, !tbaa !77
  store i32 %30, ptr %16, align 4, !tbaa !18
  call void @llvm.lifetime.start.p0(i64 4, ptr %17) #12
  %31 = load ptr, ptr %7, align 8, !tbaa !4
  %32 = getelementptr inbounds nuw %struct.lstopo_output, ptr %31, i32 0, i32 48
  %33 = load i32, ptr %32, align 4, !tbaa !124
  %34 = icmp ne i32 %33, 0
  br i1 %34, label %35, label %45

35:                                               ; preds = %6
  %36 = load ptr, ptr %7, align 8, !tbaa !4
  %37 = getelementptr inbounds nuw %struct.lstopo_output, ptr %36, i32 0, i32 49
  %38 = load ptr, ptr %8, align 8, !tbaa !42
  %39 = getelementptr inbounds nuw %struct.hwloc_obj, ptr %38, i32 0, i32 0
  %40 = load i32, ptr %39, align 8, !tbaa !96
  %41 = zext i32 %40 to i64
  %42 = getelementptr inbounds nuw [20 x i32], ptr %37, i64 0, i64 %41
  %43 = load i32, ptr %42, align 4, !tbaa !18
  %44 = icmp ne i32 %43, 0
  br i1 %44, label %46, label %45

45:                                               ; preds = %35, %6
  store i32 1, ptr %18, align 4
  br label %90

46:                                               ; preds = %35
  store i32 0, ptr %17, align 4, !tbaa !18
  br label %47

47:                                               ; preds = %86, %46
  %48 = load i32, ptr %17, align 4, !tbaa !18
  %49 = load ptr, ptr %14, align 8, !tbaa !50
  %50 = getelementptr inbounds nuw %struct.lstopo_obj_userdata, ptr %49, i32 0, i32 16
  %51 = load i32, ptr %50, align 4, !tbaa !111
  %52 = icmp ult i32 %48, %51
  br i1 %52, label %53, label %89

53:                                               ; preds = %47
  %54 = load ptr, ptr %13, align 8, !tbaa !74
  %55 = getelementptr inbounds nuw %struct.draw_methods, ptr %54, i32 0, i32 4
  %56 = load ptr, ptr %55, align 8, !tbaa !102
  %57 = load ptr, ptr %7, align 8, !tbaa !4
  %58 = load ptr, ptr %9, align 8, !tbaa !20
  %59 = load i32, ptr %15, align 4, !tbaa !18
  %60 = load i32, ptr %10, align 4, !tbaa !18
  %61 = load i32, ptr %11, align 4, !tbaa !18
  %62 = load ptr, ptr %14, align 8, !tbaa !50
  %63 = getelementptr inbounds nuw %struct.lstopo_obj_userdata, ptr %62, i32 0, i32 15
  %64 = load i32, ptr %17, align 4, !tbaa !18
  %65 = zext i32 %64 to i64
  %66 = getelementptr inbounds nuw [4 x %struct.lstopo_text_line], ptr %63, i64 0, i64 %65
  %67 = getelementptr inbounds nuw %struct.lstopo_text_line, ptr %66, i32 0, i32 2
  %68 = load i32, ptr %67, align 4, !tbaa !114
  %69 = add i32 %61, %68
  %70 = load i32, ptr %12, align 4, !tbaa !18
  %71 = load i32, ptr %17, align 4, !tbaa !18
  %72 = load i32, ptr %16, align 4, !tbaa !18
  %73 = load i32, ptr %15, align 4, !tbaa !18
  %74 = add i32 %72, %73
  %75 = mul i32 %71, %74
  %76 = add i32 %70, %75
  %77 = load ptr, ptr %14, align 8, !tbaa !50
  %78 = getelementptr inbounds nuw %struct.lstopo_obj_userdata, ptr %77, i32 0, i32 15
  %79 = load i32, ptr %17, align 4, !tbaa !18
  %80 = zext i32 %79 to i64
  %81 = getelementptr inbounds nuw [4 x %struct.lstopo_text_line], ptr %78, i64 0, i64 %80
  %82 = getelementptr inbounds nuw %struct.lstopo_text_line, ptr %81, i32 0, i32 0
  %83 = getelementptr inbounds [128 x i8], ptr %82, i64 0, i64 0
  %84 = load ptr, ptr %8, align 8, !tbaa !42
  %85 = load i32, ptr %17, align 4, !tbaa !18
  call void %56(ptr noundef %57, ptr noundef %58, i32 noundef %59, i32 noundef %60, i32 noundef %69, i32 noundef %76, ptr noundef %83, ptr noundef %84, i32 noundef %85)
  br label %86

86:                                               ; preds = %53
  %87 = load i32, ptr %17, align 4, !tbaa !18
  %88 = add i32 %87, 1
  store i32 %88, ptr %17, align 4, !tbaa !18
  br label %47, !llvm.loop !196

89:                                               ; preds = %47
  store i32 0, ptr %18, align 4
  br label %90

90:                                               ; preds = %89, %45
  call void @llvm.lifetime.end.p0(i64 4, ptr %17) #12
  call void @llvm.lifetime.end.p0(i64 4, ptr %16) #12
  call void @llvm.lifetime.end.p0(i64 4, ptr %15) #12
  call void @llvm.lifetime.end.p0(i64 8, ptr %14) #12
  call void @llvm.lifetime.end.p0(i64 8, ptr %13) #12
  %91 = load i32, ptr %18, align 4
  switch i32 %91, label %93 [
    i32 0, label %92
    i32 1, label %92
  ]

92:                                               ; preds = %90, %90
  ret void

93:                                               ; preds = %90
  unreachable
}

; Function Attrs: nounwind uwtable
define internal void @normal_draw(ptr noundef %0, ptr noundef %1, i32 noundef %2, i32 noundef %3, i32 noundef %4) #0 {
  %6 = alloca ptr, align 8
  %7 = alloca ptr, align 8
  %8 = alloca i32, align 4
  %9 = alloca i32, align 4
  %10 = alloca i32, align 4
  %11 = alloca ptr, align 8
  %12 = alloca i32, align 4
  %13 = alloca i32, align 4
  %14 = alloca i32, align 4
  %15 = alloca i32, align 4
  %16 = alloca ptr, align 8
  %17 = alloca %struct.lstopo_style, align 8
  %18 = alloca i32, align 4
  %19 = alloca i32, align 4
  store ptr %0, ptr %6, align 8, !tbaa !4
  store ptr %1, ptr %7, align 8, !tbaa !42
  store i32 %2, ptr %8, align 4, !tbaa !18
  store i32 %3, ptr %9, align 4, !tbaa !18
  store i32 %4, ptr %10, align 4, !tbaa !18
  call void @llvm.lifetime.start.p0(i64 8, ptr %11) #12
  %20 = load ptr, ptr %7, align 8, !tbaa !42
  %21 = getelementptr inbounds nuw %struct.hwloc_obj, ptr %20, i32 0, i32 30
  %22 = load ptr, ptr %21, align 8, !tbaa !44
  store ptr %22, ptr %11, align 8, !tbaa !50
  call void @llvm.lifetime.start.p0(i64 4, ptr %12) #12
  %23 = load ptr, ptr %6, align 8, !tbaa !4
  %24 = getelementptr inbounds nuw %struct.lstopo_output, ptr %23, i32 0, i32 38
  %25 = load i32, ptr %24, align 4, !tbaa !75
  store i32 %25, ptr %12, align 4, !tbaa !18
  call void @llvm.lifetime.start.p0(i64 4, ptr %13) #12
  %26 = load ptr, ptr %6, align 8, !tbaa !4
  %27 = getelementptr inbounds nuw %struct.lstopo_output, ptr %26, i32 0, i32 39
  %28 = load i32, ptr %27, align 8, !tbaa !76
  store i32 %28, ptr %13, align 4, !tbaa !18
  call void @llvm.lifetime.start.p0(i64 4, ptr %14) #12
  %29 = load ptr, ptr %6, align 8, !tbaa !4
  %30 = getelementptr inbounds nuw %struct.lstopo_output, ptr %29, i32 0, i32 40
  %31 = load i32, ptr %30, align 4, !tbaa !77
  store i32 %31, ptr %14, align 4, !tbaa !18
  %32 = load ptr, ptr %6, align 8, !tbaa !4
  %33 = getelementptr inbounds nuw %struct.lstopo_output, ptr %32, i32 0, i32 58
  %34 = load i32, ptr %33, align 8, !tbaa !145
  %35 = icmp ne i32 %34, 0
  br i1 %35, label %36, label %62

36:                                               ; preds = %5
  %37 = load ptr, ptr %11, align 8, !tbaa !50
  %38 = getelementptr inbounds nuw %struct.lstopo_obj_userdata, ptr %37, i32 0, i32 2
  %39 = load i32, ptr %38, align 4, !tbaa !146
  %40 = icmp eq i32 %39, 1
  br i1 %40, label %41, label %62

41:                                               ; preds = %36
  %42 = load ptr, ptr %7, align 8, !tbaa !42
  %43 = getelementptr inbounds nuw %struct.hwloc_obj, ptr %42, i32 0, i32 10
  %44 = load ptr, ptr %43, align 8, !tbaa !142
  %45 = getelementptr inbounds nuw %struct.hwloc_obj, ptr %44, i32 0, i32 14
  %46 = load i32, ptr %45, align 8, !tbaa !147
  %47 = load ptr, ptr %6, align 8, !tbaa !4
  %48 = getelementptr inbounds nuw %struct.lstopo_output, ptr %47, i32 0, i32 59
  %49 = load ptr, ptr %7, align 8, !tbaa !42
  %50 = getelementptr inbounds nuw %struct.hwloc_obj, ptr %49, i32 0, i32 0
  %51 = load i32, ptr %50, align 8, !tbaa !96
  %52 = zext i32 %51 to i64
  %53 = getelementptr inbounds nuw [20 x i32], ptr %48, i64 0, i64 %52
  %54 = load i32, ptr %53, align 4, !tbaa !18
  %55 = icmp ugt i32 %46, %54
  br i1 %55, label %56, label %62

56:                                               ; preds = %41
  %57 = load ptr, ptr %6, align 8, !tbaa !4
  %58 = load ptr, ptr %7, align 8, !tbaa !42
  %59 = load i32, ptr %8, align 4, !tbaa !18
  %60 = load i32, ptr %9, align 4, !tbaa !18
  %61 = load i32, ptr %10, align 4, !tbaa !18
  call void @factorized_draw(ptr noundef %57, ptr noundef %58, i32 noundef %59, i32 noundef %60, i32 noundef %61)
  store i32 1, ptr %15, align 4
  br label %162

62:                                               ; preds = %41, %36, %5
  %63 = load ptr, ptr %6, align 8, !tbaa !4
  %64 = getelementptr inbounds nuw %struct.lstopo_output, ptr %63, i32 0, i32 66
  %65 = load i32, ptr %64, align 8, !tbaa !78
  %66 = icmp eq i32 %65, 0
  br i1 %66, label %67, label %119

67:                                               ; preds = %62
  %68 = load ptr, ptr %7, align 8, !tbaa !42
  %69 = getelementptr inbounds nuw %struct.hwloc_obj, ptr %68, i32 0, i32 0
  %70 = load i32, ptr %69, align 8, !tbaa !96
  %71 = icmp ne i32 %70, 4
  br i1 %71, label %72, label %75

72:                                               ; preds = %67
  %73 = load ptr, ptr %6, align 8, !tbaa !4
  %74 = load ptr, ptr %7, align 8, !tbaa !42
  call void @prepare_text(ptr noundef %73, ptr noundef %74)
  br label %75

75:                                               ; preds = %72, %67
  %76 = load i32, ptr %12, align 4, !tbaa !18
  %77 = load ptr, ptr %11, align 8, !tbaa !50
  %78 = getelementptr inbounds nuw %struct.lstopo_obj_userdata, ptr %77, i32 0, i32 6
  store i32 %76, ptr %78, align 8, !tbaa !97
  %79 = load i32, ptr %12, align 4, !tbaa !18
  %80 = load ptr, ptr %11, align 8, !tbaa !50
  %81 = getelementptr inbounds nuw %struct.lstopo_obj_userdata, ptr %80, i32 0, i32 7
  store i32 %79, ptr %81, align 4, !tbaa !99
  %82 = load ptr, ptr %11, align 8, !tbaa !50
  %83 = getelementptr inbounds nuw %struct.lstopo_obj_userdata, ptr %82, i32 0, i32 16
  %84 = load i32, ptr %83, align 4, !tbaa !111
  %85 = icmp ugt i32 %84, 0
  br i1 %85, label %86, label %112

86:                                               ; preds = %75
  %87 = load ptr, ptr %11, align 8, !tbaa !50
  %88 = getelementptr inbounds nuw %struct.lstopo_obj_userdata, ptr %87, i32 0, i32 17
  %89 = load i32, ptr %88, align 8, !tbaa !109
  %90 = load i32, ptr %12, align 4, !tbaa !18
  %91 = add i32 %89, %90
  %92 = load ptr, ptr %11, align 8, !tbaa !50
  %93 = getelementptr inbounds nuw %struct.lstopo_obj_userdata, ptr %92, i32 0, i32 6
  %94 = load i32, ptr %93, align 8, !tbaa !97
  %95 = add i32 %94, %91
  store i32 %95, ptr %93, align 8, !tbaa !97
  %96 = load i32, ptr %13, align 4, !tbaa !18
  %97 = load i32, ptr %13, align 4, !tbaa !18
  %98 = load i32, ptr %14, align 4, !tbaa !18
  %99 = add i32 %97, %98
  %100 = load ptr, ptr %11, align 8, !tbaa !50
  %101 = getelementptr inbounds nuw %struct.lstopo_obj_userdata, ptr %100, i32 0, i32 16
  %102 = load i32, ptr %101, align 4, !tbaa !111
  %103 = sub i32 %102, 1
  %104 = mul i32 %99, %103
  %105 = add i32 %96, %104
  %106 = load i32, ptr %12, align 4, !tbaa !18
  %107 = add i32 %105, %106
  %108 = load ptr, ptr %11, align 8, !tbaa !50
  %109 = getelementptr inbounds nuw %struct.lstopo_obj_userdata, ptr %108, i32 0, i32 7
  %110 = load i32, ptr %109, align 4, !tbaa !99
  %111 = add i32 %110, %107
  store i32 %111, ptr %109, align 4, !tbaa !99
  br label %112

112:                                              ; preds = %86, %75
  %113 = load ptr, ptr %6, align 8, !tbaa !4
  %114 = load ptr, ptr %7, align 8, !tbaa !42
  %115 = load i32, ptr %12, align 4, !tbaa !18
  %116 = load ptr, ptr %11, align 8, !tbaa !50
  %117 = getelementptr inbounds nuw %struct.lstopo_obj_userdata, ptr %116, i32 0, i32 7
  %118 = load i32, ptr %117, align 4, !tbaa !99
  call void @place_children(ptr noundef %113, ptr noundef %114, i32 noundef %115, i32 noundef %118)
  br label %161

119:                                              ; preds = %62
  call void @llvm.lifetime.start.p0(i64 8, ptr %16) #12
  %120 = load ptr, ptr %6, align 8, !tbaa !4
  %121 = getelementptr inbounds nuw %struct.lstopo_output, ptr %120, i32 0, i32 65
  %122 = load ptr, ptr %121, align 8, !tbaa !35
  store ptr %122, ptr %16, align 8, !tbaa !74
  call void @llvm.lifetime.start.p0(i64 24, ptr %17) #12
  call void @llvm.lifetime.start.p0(i64 4, ptr %18) #12
  call void @llvm.lifetime.start.p0(i64 4, ptr %19) #12
  %123 = load ptr, ptr %11, align 8, !tbaa !50
  %124 = getelementptr inbounds nuw %struct.lstopo_obj_userdata, ptr %123, i32 0, i32 6
  %125 = load i32, ptr %124, align 8, !tbaa !97
  store i32 %125, ptr %18, align 4, !tbaa !18
  %126 = load ptr, ptr %11, align 8, !tbaa !50
  %127 = getelementptr inbounds nuw %struct.lstopo_obj_userdata, ptr %126, i32 0, i32 7
  %128 = load i32, ptr %127, align 4, !tbaa !99
  store i32 %128, ptr %19, align 4, !tbaa !18
  %129 = load ptr, ptr %6, align 8, !tbaa !4
  %130 = load ptr, ptr %7, align 8, !tbaa !42
  call void @lstopo_set_object_color(ptr noundef %129, ptr noundef %130, ptr noundef %17)
  %131 = load ptr, ptr %16, align 8, !tbaa !74
  %132 = getelementptr inbounds nuw %struct.draw_methods, ptr %131, i32 0, i32 2
  %133 = load ptr, ptr %132, align 8, !tbaa !101
  %134 = load ptr, ptr %6, align 8, !tbaa !4
  %135 = getelementptr inbounds nuw %struct.lstopo_style, ptr %17, i32 0, i32 0
  %136 = load ptr, ptr %135, align 8, !tbaa !60
  %137 = load i32, ptr %8, align 4, !tbaa !18
  %138 = load i32, ptr %9, align 4, !tbaa !18
  %139 = load i32, ptr %18, align 4, !tbaa !18
  %140 = load i32, ptr %10, align 4, !tbaa !18
  %141 = load i32, ptr %19, align 4, !tbaa !18
  %142 = load ptr, ptr %7, align 8, !tbaa !42
  call void %133(ptr noundef %134, ptr noundef %136, i32 noundef %137, i32 noundef %138, i32 noundef %139, i32 noundef %140, i32 noundef %141, ptr noundef %142, i32 noundef 0)
  %143 = load ptr, ptr %6, align 8, !tbaa !4
  %144 = load ptr, ptr %7, align 8, !tbaa !42
  %145 = getelementptr inbounds nuw %struct.lstopo_style, ptr %17, i32 0, i32 1
  %146 = load ptr, ptr %145, align 8, !tbaa !61
  %147 = load i32, ptr %8, align 4, !tbaa !18
  %148 = sub i32 %147, 1
  %149 = load i32, ptr %9, align 4, !tbaa !18
  %150 = load i32, ptr %12, align 4, !tbaa !18
  %151 = add i32 %149, %150
  %152 = load i32, ptr %10, align 4, !tbaa !18
  %153 = load i32, ptr %12, align 4, !tbaa !18
  %154 = add i32 %152, %153
  call void @draw_text(ptr noundef %143, ptr noundef %144, ptr noundef %146, i32 noundef %148, i32 noundef %151, i32 noundef %154)
  %155 = load ptr, ptr %6, align 8, !tbaa !4
  %156 = load ptr, ptr %7, align 8, !tbaa !42
  %157 = load i32, ptr %8, align 4, !tbaa !18
  %158 = sub i32 %157, 1
  %159 = load i32, ptr %9, align 4, !tbaa !18
  %160 = load i32, ptr %10, align 4, !tbaa !18
  call void @draw_children(ptr noundef %155, ptr noundef %156, i32 noundef %158, i32 noundef %159, i32 noundef %160)
  call void @llvm.lifetime.end.p0(i64 4, ptr %19) #12
  call void @llvm.lifetime.end.p0(i64 4, ptr %18) #12
  call void @llvm.lifetime.end.p0(i64 24, ptr %17) #12
  call void @llvm.lifetime.end.p0(i64 8, ptr %16) #12
  br label %161

161:                                              ; preds = %119, %112
  store i32 0, ptr %15, align 4
  br label %162

162:                                              ; preds = %161, %56
  call void @llvm.lifetime.end.p0(i64 4, ptr %14) #12
  call void @llvm.lifetime.end.p0(i64 4, ptr %13) #12
  call void @llvm.lifetime.end.p0(i64 4, ptr %12) #12
  call void @llvm.lifetime.end.p0(i64 8, ptr %11) #12
  %163 = load i32, ptr %15, align 4
  switch i32 %163, label %165 [
    i32 0, label %164
    i32 1, label %164
  ]

164:                                              ; preds = %162, %162
  ret void

165:                                              ; preds = %162
  unreachable
}