; Function Attrs: nounwind uwtable
define internal void @normal_draw(ptr noundef %0, ptr noundef %1, i32 noundef %2, i32 noundef %3, i32 noundef %4) unnamed_addr #8 {
  %6 = alloca %struct.lstopo_style, align 8
  %7 = getelementptr inbounds nuw i8, ptr %1, i64 232
  %8 = load ptr, ptr %7, align 8, !tbaa !37
  %9 = getelementptr inbounds nuw i8, ptr %0, i64 932
  %10 = load i32, ptr %9, align 4, !tbaa !67
  %11 = getelementptr inbounds nuw i8, ptr %0, i64 936
  %12 = load i32, ptr %11, align 8, !tbaa !68
  %13 = getelementptr inbounds nuw i8, ptr %0, i64 940
  %14 = load i32, ptr %13, align 4, !tbaa !69
  %15 = getelementptr inbounds nuw i8, ptr %0, i64 1328
  %16 = load i32, ptr %15, align 8, !tbaa !122
  %.not = icmp eq i32 %16, 0
  br i1 %.not, label %33, label %17

17:                                               ; preds = %5
  %18 = getelementptr inbounds nuw i8, ptr %8, i64 36
  %19 = load i32, ptr %18, align 4, !tbaa !123
  %20 = icmp eq i32 %19, 1
  br i1 %20, label %21, label %33

21:                                               ; preds = %17
  %22 = getelementptr inbounds nuw i8, ptr %1, i64 72
  %23 = load ptr, ptr %22, align 8, !tbaa !120
  %24 = getelementptr inbounds nuw i8, ptr %23, i64 104
  %25 = load i32, ptr %24, align 8, !tbaa !124
  %26 = getelementptr inbounds nuw i8, ptr %0, i64 1332
  %27 = load i32, ptr %1, align 8, !tbaa !96
  %28 = zext i32 %27 to i64
  %29 = getelementptr inbounds nuw [20 x i32], ptr %26, i64 0, i64 %28
  %30 = load i32, ptr %29, align 4, !tbaa !4
  %31 = icmp ugt i32 %25, %30
  br i1 %31, label %32, label %33

32:                                               ; preds = %21
  tail call fastcc void @factorized_draw(ptr noundef nonnull %0, ptr noundef nonnull %1, i32 noundef %2, i32 noundef %3, i32 noundef %4)
  br label %100

33:                                               ; preds = %21, %17, %5
  %34 = getelementptr inbounds nuw i8, ptr %0, i64 1608
  %35 = load i32, ptr %34, align 8, !tbaa !70
  %36 = icmp eq i32 %35, 0
  br i1 %36, label %37, label %56

37:                                               ; preds = %33
  %38 = load i32, ptr %1, align 8, !tbaa !96
  %.not60 = icmp eq i32 %38, 4
  br i1 %.not60, label %40, label %39

39:                                               ; preds = %37
  tail call fastcc void @prepare_text(ptr noundef nonnull %0, ptr noundef nonnull %1)
  br label %40

40:                                               ; preds = %39, %37
  %41 = getelementptr inbounds nuw i8, ptr %8, i64 72
  store i32 %10, ptr %41, align 8, !tbaa !98
  %42 = getelementptr inbounds nuw i8, ptr %8, i64 76
  store i32 %10, ptr %42, align 4, !tbaa !100
  %43 = getelementptr inbounds nuw i8, ptr %8, i64 764
  %44 = load i32, ptr %43, align 4, !tbaa !90
  %.not61 = icmp eq i32 %44, 0
  br i1 %.not61, label %54, label %45

45:                                               ; preds = %40
  %46 = getelementptr inbounds nuw i8, ptr %8, i64 768
  %47 = load i32, ptr %46, align 8, !tbaa !88
  %reass.add = shl i32 %10, 1
  %48 = add i32 %47, %reass.add
  store i32 %48, ptr %41, align 8, !tbaa !98
  %49 = add i32 %14, %12
  %50 = add i32 %44, -1
  %51 = mul i32 %50, %49
  %52 = add i32 %reass.add, %12
  %53 = add i32 %52, %51
  store i32 %53, ptr %42, align 4, !tbaa !100
  br label %54

54:                                               ; preds = %45, %40
  %55 = phi i32 [ %53, %45 ], [ %10, %40 ]
  tail call fastcc void @place_children(ptr noundef nonnull %0, ptr noundef nonnull %1, i32 noundef %10, i32 noundef %55)
  br label %100

56:                                               ; preds = %33
  %57 = getelementptr inbounds nuw i8, ptr %0, i64 1600
  %58 = load ptr, ptr %57, align 8, !tbaa !27
  call void @llvm.lifetime.start.p0(i64 24, ptr nonnull %6) #26
  %59 = getelementptr inbounds nuw i8, ptr %8, i64 72
  %60 = load i32, ptr %59, align 8, !tbaa !98
  %61 = getelementptr inbounds nuw i8, ptr %8, i64 76
  %62 = load i32, ptr %61, align 4, !tbaa !100
  call fastcc void @lstopo_set_object_color(ptr noundef nonnull %0, ptr noundef nonnull %1, ptr noundef %6)
  %63 = getelementptr inbounds nuw i8, ptr %58, i64 16
  %64 = load ptr, ptr %63, align 8, !tbaa !102
  %65 = load ptr, ptr %6, align 8, !tbaa !59
  tail call void %64(ptr noundef nonnull %0, ptr noundef %65, i32 noundef %2, i32 noundef %3, i32 noundef %60, i32 noundef %4, i32 noundef %62, ptr noundef nonnull %1, i32 noundef 0) #26
  %66 = getelementptr inbounds nuw i8, ptr %6, i64 8
  %67 = load ptr, ptr %66, align 8, !tbaa !60
  %68 = add i32 %2, -1
  %69 = add i32 %10, %3
  %70 = add i32 %10, %4
  %71 = load ptr, ptr %57, align 8, !tbaa !27
  %72 = load ptr, ptr %7, align 8, !tbaa !37
  %73 = load i32, ptr %11, align 8, !tbaa !68
  %74 = load i32, ptr %13, align 4, !tbaa !69
  %75 = getelementptr inbounds nuw i8, ptr %0, i64 1124
  %76 = load i32, ptr %75, align 4, !tbaa !107
  %.not.i = icmp eq i32 %76, 0
  br i1 %.not.i, label %draw_text.exit, label %77

77:                                               ; preds = %56
  %78 = getelementptr inbounds nuw i8, ptr %0, i64 1128
  %79 = load i32, ptr %1, align 8, !tbaa !96
  %80 = zext i32 %79 to i64
  %81 = getelementptr inbounds nuw [20 x i32], ptr %78, i64 0, i64 %80
  %82 = load i32, ptr %81, align 4, !tbaa !4
  %.not25.i = icmp eq i32 %82, 0
  br i1 %.not25.i, label %draw_text.exit, label %.preheader.i

.preheader.i:                                     ; preds = %77
  %83 = getelementptr inbounds nuw i8, ptr %72, i64 764
  %84 = load i32, ptr %83, align 4, !tbaa !90
  %.not27.i = icmp eq i32 %84, 0
  br i1 %.not27.i, label %draw_text.exit, label %.lr.ph.i

.lr.ph.i:                                         ; preds = %.preheader.i
  %85 = getelementptr inbounds nuw i8, ptr %71, i64 32
  %86 = getelementptr inbounds nuw i8, ptr %72, i64 220
  %87 = add i32 %74, %73
  br label %88

88:                                               ; preds = %88, %.lr.ph.i
  %indvars.iv.i = phi i64 [ 0, %.lr.ph.i ], [ %indvars.iv.next.i, %88 ]
  %89 = load ptr, ptr %85, align 8, !tbaa !103
  %90 = getelementptr inbounds nuw [4 x %struct.lstopo_text_line], ptr %86, i64 0, i64 %indvars.iv.i
  %91 = getelementptr inbounds nuw i8, ptr %90, i64 132
  %92 = load i32, ptr %91, align 4, !tbaa !93
  %93 = add i32 %69, %92
  %94 = trunc nuw i64 %indvars.iv.i to i32
  %95 = mul i32 %87, %94
  %96 = add i32 %70, %95
  tail call void %89(ptr noundef nonnull %0, ptr noundef %67, i32 noundef %73, i32 noundef %68, i32 noundef %93, i32 noundef %96, ptr noundef nonnull %90, ptr noundef nonnull %1, i32 noundef %94) #26
  %indvars.iv.next.i = add nuw nsw i64 %indvars.iv.i, 1
  %97 = load i32, ptr %83, align 4, !tbaa !90
  %98 = zext i32 %97 to i64
  %99 = icmp samesign ult i64 %indvars.iv.next.i, %98
  br i1 %99, label %88, label %draw_text.exit, !llvm.loop !125

draw_text.exit:                                   ; preds = %88, %56, %77, %.preheader.i
  tail call fastcc void @draw_children(ptr noundef nonnull %0, ptr noundef nonnull %1, i32 noundef %68, i32 noundef %3, i32 noundef %4)
  call void @llvm.lifetime.end.p0(i64 24, ptr nonnull %6) #26
  br label %100

100:                                              ; preds = %54, %draw_text.exit, %32
  ret void
}